target datalayout = "e-m:e-p270:32:32-p271:32:32-p272:64:64-i64:64-i128:128-f80:128-n8:16:32:64-S128"
target triple = "x86_64-unknown-linux-gnu"

%struct.dh_st = type { ptr, ptr, ptr, ptr, i32, %union.crypto_mutex_st, ptr, ptr, ptr, ptr, i32, ptr, i32, i32, %struct.crypto_ex_data_st }
%union.crypto_mutex_st = type { double, [48 x i8] }
%struct.crypto_ex_data_st = type { ptr }
%struct.bignum_st = type { ptr, i32, i32, i32, i32 }

@.str = private unnamed_addr constant [118 x i8] c"generated/home/dtcxzyw/WorkSpace/Projects/compilers/llvm-opt-benchmark/bench/libquic/libquic/boringssl/crypto/dh/dh.c\00", align 1

; Function Attrs: nounwind uwtable
define hidden i32 @DH_compute_key(ptr noundef %out, ptr noundef %peers_key, ptr noundef %dh) #0 {
entry:
  %out.addr = alloca ptr, align 8
  %peers_key.addr = alloca ptr, align 8
  %dh.addr = alloca ptr, align 8
  %ctx = alloca ptr, align 8
  %shared_key = alloca ptr, align 8
  %ret = alloca i32, align 4
  %check_result = alloca i32, align 4
  %local_priv = alloca %struct.bignum_st, align 8
  store ptr %out, ptr %out.addr, align 8
  store ptr %peers_key, ptr %peers_key.addr, align 8
  store ptr %dh, ptr %dh.addr, align 8
  store ptr null, ptr %ctx, align 8
  store i32 -1, ptr %ret, align 4
  %0 = load ptr, ptr %dh.addr, align 8
  %p = getelementptr inbounds %struct.dh_st, ptr %0, i32 0, i32 0
  %1 = load ptr, ptr %p, align 8
  %call = call i32 @BN_num_bits(ptr noundef %1)
  %cmp = icmp ugt i32 %call, 10000
  br i1 %cmp, label %if.then, label %if.end

if.then:                                          ; preds = %entry
  call void @ERR_put_error(i32 noundef 5, i32 noundef 0, i32 noundef 102, ptr noundef @.str, i32 noundef 326)
  br label %err

if.end:                                           ; preds = %entry
  %call1 = call ptr @BN_CTX_new()
  store ptr %call1, ptr %ctx, align 8
  %2 = load ptr, ptr %ctx, align 8
  %cmp2 = icmp eq ptr %2, null
  br i1 %cmp2, label %if.then3, label %if.end4

if.then3:                                         ; preds = %if.end
  br label %err

if.end4:                                          ; preds = %if.end
  %3 = load ptr, ptr %ctx, align 8
  call void @BN_CTX_start(ptr noundef %3)
  %4 = load ptr, ptr %ctx, align 8
  %call5 = call ptr @BN_CTX_get(ptr noundef %4)
  store ptr %call5, ptr %shared_key, align 8
  %5 = load ptr, ptr %shared_key, align 8
  %cmp6 = icmp eq ptr %5, null
  br i1 %cmp6, label %if.then7, label %if.end8

if.then7:                                         ; preds = %if.end4
  br label %err

if.end8:                                          ; preds = %if.end4
  %6 = load ptr, ptr %dh.addr, align 8
  %priv_key = getelementptr inbounds %struct.dh_st, ptr %6, i32 0, i32 3
  %7 = load ptr, ptr %priv_key, align 8
  %cmp9 = icmp eq ptr %7, null
  br i1 %cmp9, label %if.then10, label %if.end11

if.then10:                                        ; preds = %if.end8
  call void @ERR_put_error(i32 noundef 5, i32 noundef 0, i32 noundef 103, ptr noundef @.str, i32 noundef 341)
  br label %err

if.end11:                                         ; preds = %if.end8
  %8 = load ptr, ptr %dh.addr, align 8
  %method_mont_p = getelementptr inbounds %struct.dh_st, ptr %8, i32 0, i32 6
  %9 = load ptr, ptr %dh.addr, align 8
  %method_mont_p_lock = getelementptr inbounds %struct.dh_st, ptr %9, i32 0, i32 5
  %10 = load ptr, ptr %dh.addr, align 8
  %p12 = getelementptr inbounds %struct.dh_st, ptr %10, i32 0, i32 0
  %11 = load ptr, ptr %p12, align 8
  %12 = load ptr, ptr %ctx, align 8
  %call13 = call i32 @BN_MONT_CTX_set_locked(ptr noundef %method_mont_p, ptr noundef %method_mont_p_lock, ptr noundef %11, ptr noundef %12)
  %tobool = icmp ne i32 %call13, 0
  br i1 %tobool, label %if.end15, label %if.then14

if.then14:                                        ; preds = %if.end11
  br label %err

if.end15:                                         ; preds = %if.end11
  %13 = load ptr, ptr %dh.addr, align 8
  %14 = load ptr, ptr %peers_key.addr, align 8
  %call16 = call i32 @DH_check_pub_key(ptr noundef %13, ptr noundef %14, ptr noundef %check_result)
  %tobool17 = icmp ne i32 %call16, 0
  br i1 %tobool17, label %lor.lhs.false, label %if.then19

lor.lhs.false:                                    ; preds = %if.end15
  %15 = load i32, ptr %check_result, align 4
  %tobool18 = icmp ne i32 %15, 0
  br i1 %tobool18, label %if.then19, label %if.end20

if.then19:                                        ; preds = %lor.lhs.false, %if.end15
  call void @ERR_put_error(i32 noundef 5, i32 noundef 0, i32 noundef 101, ptr noundef @.str, i32 noundef 351)
  br label %err

if.end20:                                         ; preds = %lor.lhs.false
  %16 = load ptr, ptr %dh.addr, align 8
  %priv_key21 = getelementptr inbounds %struct.dh_st, ptr %16, i32 0, i32 3
  %17 = load ptr, ptr %priv_key21, align 8
  call void @BN_with_flags(ptr noundef %local_priv, ptr noundef %17, i32 noundef 4)
  %18 = load ptr, ptr %shared_key, align 8
  %19 = load ptr, ptr %peers_key.addr, align 8
  %20 = load ptr, ptr %dh.addr, align 8
  %p22 = getelementptr inbounds %struct.dh_st, ptr %20, i32 0, i32 0
  %21 = load ptr, ptr %p22, align 8
  %22 = load ptr, ptr %ctx, align 8
  %23 = load ptr, ptr %dh.addr, align 8
  %method_mont_p23 = getelementptr inbounds %struct.dh_st, ptr %23, i32 0, i32 6
  %24 = load ptr, ptr %method_mont_p23, align 8
  %call24 = call i32 @BN_mod_exp_mont(ptr noundef %18, ptr noundef %19, ptr noundef %local_priv, ptr noundef %21, ptr noundef %22, ptr noundef %24)
  %tobool25 = icmp ne i32 %call24, 0
  br i1 %tobool25, label %if.end27, label %if.then26

if.then26:                                        ; preds = %if.end20
  call void @ERR_put_error(i32 noundef 5, i32 noundef 0, i32 noundef 3, ptr noundef @.str, i32 noundef 358)
  br label %err

if.end27:                                         ; preds = %if.end20
  %25 = load ptr, ptr %shared_key, align 8
  %26 = load ptr, ptr %out.addr, align 8
  %call28 = call i64 @BN_bn2bin(ptr noundef %25, ptr noundef %26)
  %conv = trunc i64 %call28 to i32
  store i32 %conv, ptr %ret, align 4
  br label %err

err:                                              ; preds = %if.end27, %if.then26, %if.then19, %if.then14, %if.then10, %if.then7, %if.then3, %if.then
  %27 = load ptr, ptr %ctx, align 8
  %cmp29 = icmp ne ptr %27, null
  br i1 %cmp29, label %if.then31, label %if.end32

if.then31:                                        ; preds = %err
  %28 = load ptr, ptr %ctx, align 8
  call void @BN_CTX_end(ptr noundef %28)
  %29 = load ptr, ptr %ctx, align 8
  call void @BN_CTX_free(ptr noundef %29)
  br label %if.end32

if.end32:                                         ; preds = %if.then31, %err
  %30 = load i32, ptr %ret, align 4
  ret i32 %30
}