; Function Attrs: nounwind uwtable
define hidden i32 @DH_compute_key(ptr noundef %out, ptr noundef %peers_key, ptr noundef %dh) local_unnamed_addr #0 {
entry:
  %check_result = alloca i32, align 4
  %local_priv = alloca %struct.bignum_st, align 8
  %0 = load ptr, ptr %dh, align 8
  %call = tail call i32 @BN_num_bits(ptr noundef %0) #4
  %cmp = icmp ugt i32 %call, 10000
  br i1 %cmp, label %if.then, label %if.end

if.then:                                          ; preds = %entry
  tail call void @ERR_put_error(i32 noundef 5, i32 noundef 0, i32 noundef 102, ptr noundef nonnull @.str, i32 noundef 326) #4
  br label %if.end32

if.end:                                           ; preds = %entry
  %call1 = tail call ptr @BN_CTX_new() #4
  %cmp2 = icmp eq ptr %call1, null
  br i1 %cmp2, label %if.end32, label %if.end4

if.end4:                                          ; preds = %if.end
  tail call void @BN_CTX_start(ptr noundef nonnull %call1) #4
  %call5 = tail call ptr @BN_CTX_get(ptr noundef nonnull %call1) #4
  %cmp6 = icmp eq ptr %call5, null
  br i1 %cmp6, label %if.then31, label %if.end8

if.end8:                                          ; preds = %if.end4
  %priv_key = getelementptr inbounds nuw i8, ptr %dh, i64 24
  %1 = load ptr, ptr %priv_key, align 8
  %cmp9 = icmp eq ptr %1, null
  br i1 %cmp9, label %if.then10, label %if.end11

if.then10:                                        ; preds = %if.end8
  tail call void @ERR_put_error(i32 noundef 5, i32 noundef 0, i32 noundef 103, ptr noundef nonnull @.str, i32 noundef 341) #4
  br label %if.then31

if.end11:                                         ; preds = %if.end8
  %method_mont_p = getelementptr inbounds nuw i8, ptr %dh, i64 96
  %method_mont_p_lock = getelementptr inbounds nuw i8, ptr %dh, i64 40
  %2 = load ptr, ptr %dh, align 8
  %call13 = tail call i32 @BN_MONT_CTX_set_locked(ptr noundef nonnull %method_mont_p, ptr noundef nonnull %method_mont_p_lock, ptr noundef %2, ptr noundef nonnull %call1) #4
  %tobool.not = icmp eq i32 %call13, 0
  br i1 %tobool.not, label %if.then31, label %if.end15

if.end15:                                         ; preds = %if.end11
  %call16 = call i32 @DH_check_pub_key(ptr noundef nonnull %dh, ptr noundef %peers_key, ptr noundef nonnull %check_result) #4
  %tobool17 = icmp eq i32 %call16, 0
  %3 = load i32, ptr %check_result, align 4
  %tobool18 = icmp ne i32 %3, 0
  %or.cond = select i1 %tobool17, i1 true, i1 %tobool18
  br i1 %or.cond, label %if.then19, label %if.end20

if.then19:                                        ; preds = %if.end15
  call void @ERR_put_error(i32 noundef 5, i32 noundef 0, i32 noundef 101, ptr noundef nonnull @.str, i32 noundef 351) #4
  br label %if.then31

if.end20:                                         ; preds = %if.end15
  %4 = load ptr, ptr %priv_key, align 8
  call void @BN_with_flags(ptr noundef nonnull %local_priv, ptr noundef %4, i32 noundef 4) #4
  %5 = load ptr, ptr %dh, align 8
  %6 = load ptr, ptr %method_mont_p, align 8
  %call24 = call i32 @BN_mod_exp_mont(ptr noundef nonnull %call5, ptr noundef %peers_key, ptr noundef nonnull %local_priv, ptr noundef %5, ptr noundef nonnull %call1, ptr noundef %6) #4
  %tobool25.not = icmp eq i32 %call24, 0
  br i1 %tobool25.not, label %if.then26, label %if.end27

if.then26:                                        ; preds = %if.end20
  call void @ERR_put_error(i32 noundef 5, i32 noundef 0, i32 noundef 3, ptr noundef nonnull @.str, i32 noundef 358) #4
  br label %if.then31

if.end27:                                         ; preds = %if.end20
  %call28 = call i64 @BN_bn2bin(ptr noundef nonnull %call5, ptr noundef %out) #4
  %conv = trunc i64 %call28 to i32
  br label %if.then31

if.then31:                                        ; preds = %if.end4, %if.then10, %if.then19, %if.end27, %if.then26, %if.end11
  %ret.0.ph = phi i32 [ -1, %if.end11 ], [ -1, %if.then26 ], [ %conv, %if.end27 ], [ -1, %if.then19 ], [ -1, %if.then10 ], [ -1, %if.end4 ]
  call void @BN_CTX_end(ptr noundef nonnull %call1) #4
  call void @BN_CTX_free(ptr noundef nonnull %call1) #4
  br label %if.end32

if.end32:                                         ; preds = %if.then, %if.end, %if.then31
  %ret.024 = phi i32 [ %ret.0.ph, %if.then31 ], [ -1, %if.then ], [ -1, %if.end ]
  ret i32 %ret.024
}